; Function Attrs: mustprogress uwtable
define void @_ZN6duckdb9ListStats13SetChildStatsERNS_14BaseStatisticsENS_10unique_ptrIS1_St14default_deleteIS1_ELb1EEE(ptr noundef nonnull align 8 dereferenceable(88) %0, ptr noundef %1) local_unnamed_addr #3 align 2 personality ptr @__gxx_personality_v0 {
  %3 = alloca %"struct.duckdb::LogicalType", align 8
  %4 = alloca %"class.duckdb::BaseStatistics", align 8
  %5 = alloca %"struct.duckdb::LogicalType", align 8
  %6 = load ptr, ptr %1, align 8, !tbaa !33
  %.not = icmp eq ptr %6, null
  %7 = getelementptr inbounds nuw i8, ptr %0, i64 80
  %8 = load ptr, ptr %7, align 8, !tbaa !33
  br i1 %.not, label %9, label %19

9:                                                ; preds = %2
  call void @llvm.lifetime.start.p0(i64 88, ptr nonnull %4) #29
  %10 = tail call noundef nonnull align 8 dereferenceable(24) ptr @_ZN6duckdb8ListType12GetChildTypeERKNS_11LogicalTypeE(ptr noundef nonnull align 8 dereferenceable(24) %0)
  call void @_ZN6duckdb11LogicalTypeC1ERKS0_(ptr noundef nonnull align 8 dereferenceable(24) %5, ptr noundef nonnull align 8 dereferenceable(24) %10)
  call void @llvm.experimental.noalias.scope.decl(metadata !348)
  call void @llvm.lifetime.start.p0(i64 24, ptr nonnull %3)
  call void @_ZN6duckdb11LogicalTypeC1EOS0_(ptr noundef nonnull align 8 dereferenceable(24) %3, ptr noundef nonnull align 8 dereferenceable(24) %5) #29, !noalias !348
  invoke void @_ZN6duckdb14BaseStatistics17CreateUnknownTypeENS_11LogicalTypeE(ptr dead_on_unwind nonnull writable sret(%"class.duckdb::BaseStatistics") align 8 %4, ptr noundef nonnull %3)
          to label %13 unwind label %11

11:                                               ; preds = %9
  %12 = landingpad { ptr, i32 }
          cleanup
  call void @_ZN6duckdb11LogicalTypeD1Ev(ptr noundef nonnull align 8 dereferenceable(24) %3) #29
  br label %.body

13:                                               ; preds = %9
  call void @_ZN6duckdb11LogicalTypeD1Ev(ptr noundef nonnull align 8 dereferenceable(24) %3) #29
  %14 = getelementptr inbounds nuw i8, ptr %4, i64 24
  store i8 1, ptr %14, align 8, !tbaa !49, !alias.scope !348
  %15 = getelementptr inbounds nuw i8, ptr %4, i64 25
  store i8 1, ptr %15, align 1, !tbaa !52, !alias.scope !348
  call void @llvm.lifetime.end.p0(i64 24, ptr nonnull %3)
  invoke void @_ZN6duckdb14BaseStatistics4CopyERKS0_(ptr noundef nonnull align 8 dereferenceable(88) %8, ptr noundef nonnull align 8 dereferenceable(88) %4)
          to label %16 unwind label %17

16:                                               ; preds = %13
  call void @_ZN6duckdb14BaseStatisticsD1Ev(ptr noundef nonnull align 8 dereferenceable(88) %4) #29
  call void @_ZN6duckdb11LogicalTypeD1Ev(ptr noundef nonnull align 8 dereferenceable(24) %5) #29
  call void @llvm.lifetime.end.p0(i64 88, ptr nonnull %4) #29
  br label %21

17:                                               ; preds = %13
  %18 = landingpad { ptr, i32 }
          cleanup
  call void @_ZN6duckdb14BaseStatisticsD1Ev(ptr noundef nonnull align 8 dereferenceable(88) %4) #29
  br label %.body

.body:                                            ; preds = %11, %17
  %.pn = phi { ptr, i32 } [ %18, %17 ], [ %12, %11 ]
  call void @_ZN6duckdb11LogicalTypeD1Ev(ptr noundef nonnull align 8 dereferenceable(24) %5) #29
  call void @llvm.lifetime.end.p0(i64 88, ptr nonnull %4) #29
  resume { ptr, i32 } %.pn

19:                                               ; preds = %2
  %20 = tail call noundef nonnull align 8 dereferenceable(88) ptr @_ZNK6duckdb10unique_ptrINS_14BaseStatisticsESt14default_deleteIS1_ELb1EEdeEv(ptr noundef nonnull align 8 dereferenceable(8) %1)
  tail call void @_ZN6duckdb14BaseStatistics4CopyERKS0_(ptr noundef nonnull align 8 dereferenceable(88) %8, ptr noundef nonnull align 8 dereferenceable(88) %20)
  br label %21

21:                                               ; preds = %19, %16
  ret void
}